; Function Attrs: mustprogress nounwind uwtable
define dso_local noundef zeroext i1 @_ZNK4llvm4Loop17makeLoopInvariantEPNS_5ValueERbPNS_11InstructionEPNS_16MemorySSAUpdaterEPNS_15ScalarEvolutionE(ptr noundef nonnull align 8 dereferenceable(152) %0, ptr noundef %1, ptr nocapture noundef nonnull writeonly align 1 dereferenceable(1) %2, ptr noundef %3, ptr noundef %4, ptr noundef %5) local_unnamed_addr #0 align 2 {
  %7 = load i8, ptr %1, align 8
  %8 = icmp ult i8 %7, 29
  br i1 %8, label %11, label %9

9:                                                ; preds = %6
  %10 = tail call noundef zeroext i1 @_ZNK4llvm4Loop17makeLoopInvariantEPNS_11InstructionERbS2_PNS_16MemorySSAUpdaterEPNS_15ScalarEvolutionE(ptr noundef nonnull align 8 dereferenceable(152) %0, ptr noundef nonnull %1, ptr noundef nonnull align 1 dereferenceable(1) %2, ptr noundef %3, ptr noundef %4, ptr noundef %5)
  br label %11

11:                                               ; preds = %6, %9
  %.0 = phi i1 [ %10, %9 ], [ true, %6 ]
  ret i1 %.0
}